target datalayout = "e-m:e-p270:32:32-p271:32:32-p272:64:64-i64:64-i128:128-f80:128-n8:16:32:64-S128"
target triple = "x86_64-pc-linux-gnu"

@.str.4 = private unnamed_addr constant [1 x i8] zeroinitializer, align 1
@.str.5 = private unnamed_addr constant [6 x i8] c"%s%ld\00", align 1
@.str.6 = private unnamed_addr constant [10 x i8] c"%s%ld-%ld\00", align 1
@.str.7 = private unnamed_addr constant [2 x i8] c",\00", align 1

; Function Attrs: nounwind uwtable
define dso_local ptr @bit_fmt_full(ptr noundef %0) #0 {
  %2 = alloca ptr, align 8
  %3 = alloca i32, align 4
  %4 = alloca i64, align 8
  %5 = alloca i64, align 8
  %6 = alloca ptr, align 8
  %7 = alloca ptr, align 8
  %8 = alloca ptr, align 8
  store ptr %0, ptr %2, align 8
  call void @llvm.lifetime.start.p0(i64 4, ptr %3) #12
  call void @llvm.lifetime.start.p0(i64 8, ptr %4) #12
  call void @llvm.lifetime.start.p0(i64 8, ptr %5) #12
  call void @llvm.lifetime.start.p0(i64 8, ptr %6) #12
  store ptr null, ptr %6, align 8
  call void @llvm.lifetime.start.p0(i64 8, ptr %7) #12
  store ptr null, ptr %7, align 8
  call void @llvm.lifetime.start.p0(i64 8, ptr %8) #12
  store ptr @.str.4, ptr %8, align 8
  br label %9

9:                                                ; preds = %1
  br label %10

10:                                               ; preds = %9
  br label %11

11:                                               ; preds = %10
  store i64 0, ptr %5, align 8
  br label %12

12:                                               ; preds = %88, %29, %11
  %13 = load i64, ptr %5, align 8
  %14 = load ptr, ptr %2, align 8
  %15 = getelementptr inbounds i64, ptr %14, i64 1
  %16 = load i64, ptr %15, align 8
  %17 = icmp slt i64 %13, %16
  br i1 %17, label %18, label %91

18:                                               ; preds = %12
  %19 = load i64, ptr %5, align 8
  %20 = ashr i64 %19, 6
  %21 = add nsw i64 %20, 2
  %22 = trunc i64 %21 to i32
  store i32 %22, ptr %3, align 4
  %23 = load ptr, ptr %2, align 8
  %24 = load i32, ptr %3, align 4
  %25 = sext i32 %24 to i64
  %26 = getelementptr inbounds i64, ptr %23, i64 %25
  %27 = load i64, ptr %26, align 8
  %28 = icmp eq i64 %27, 0
  br i1 %28, label %29, label %32

29:                                               ; preds = %18
  %30 = load i64, ptr %5, align 8
  %31 = add i64 %30, 64
  store i64 %31, ptr %5, align 8
  br label %12, !llvm.loop !26

32:                                               ; preds = %18
  %33 = load ptr, ptr %2, align 8
  %34 = load i64, ptr %5, align 8
  %35 = ashr i64 %34, 6
  %36 = add nsw i64 %35, 2
  %37 = getelementptr inbounds i64, ptr %33, i64 %36
  %38 = load i64, ptr %37, align 8
  %39 = load i64, ptr %5, align 8
  %40 = and i64 %39, 63
  %41 = shl i64 1, %40
  %42 = and i64 %38, %41
  %43 = icmp ne i64 %42, 0
  br i1 %43, label %44, label %45

44:                                               ; preds = %32
  br i1 true, label %46, label %88

45:                                               ; preds = %32
  br i1 false, label %46, label %88

46:                                               ; preds = %45, %44
  %47 = load i64, ptr %5, align 8
  store i64 %47, ptr %4, align 8
  br label %48

48:                                               ; preds = %73, %46
  %49 = load i64, ptr %5, align 8
  %50 = add nsw i64 %49, 1
  %51 = load ptr, ptr %2, align 8
  %52 = getelementptr inbounds i64, ptr %51, i64 1
  %53 = load i64, ptr %52, align 8
  %54 = icmp slt i64 %50, %53
  br i1 %54, label %55, label %71

55:                                               ; preds = %48
  %56 = load ptr, ptr %2, align 8
  %57 = load i64, ptr %5, align 8
  %58 = add nsw i64 %57, 1
  %59 = ashr i64 %58, 6
  %60 = add nsw i64 %59, 2
  %61 = getelementptr inbounds i64, ptr %56, i64 %60
  %62 = load i64, ptr %61, align 8
  %63 = load i64, ptr %5, align 8
  %64 = add nsw i64 %63, 1
  %65 = and i64 %64, 63
  %66 = shl i64 1, %65
  %67 = and i64 %62, %66
  %68 = icmp ne i64 %67, 0
  %69 = select i1 %68, i32 1, i32 0
  %70 = icmp ne i32 %69, 0
  br label %71

71:                                               ; preds = %55, %48
  %72 = phi i1 [ false, %48 ], [ %70, %55 ]
  br i1 %72, label %73, label %76

73:                                               ; preds = %71
  %74 = load i64, ptr %5, align 8
  %75 = add nsw i64 %74, 1
  store i64 %75, ptr %5, align 8
  br label %48, !llvm.loop !27

76:                                               ; preds = %71
  %77 = load i64, ptr %5, align 8
  %78 = load i64, ptr %4, align 8
  %79 = icmp eq i64 %77, %78
  br i1 %79, label %80, label %83

80:                                               ; preds = %76
  %81 = load ptr, ptr %8, align 8
  %82 = load i64, ptr %4, align 8
  call void (ptr, ptr, ptr, ...) @_xstrfmtcatat(ptr noundef %6, ptr noundef %7, ptr noundef @.str.5, ptr noundef %81, i64 noundef %82)
  br label %87

83:                                               ; preds = %76
  %84 = load ptr, ptr %8, align 8
  %85 = load i64, ptr %4, align 8
  %86 = load i64, ptr %5, align 8
  call void (ptr, ptr, ptr, ...) @_xstrfmtcatat(ptr noundef %6, ptr noundef %7, ptr noundef @.str.6, ptr noundef %84, i64 noundef %85, i64 noundef %86)
  br label %87

87:                                               ; preds = %83, %80
  store ptr @.str.7, ptr %8, align 8
  br label %88

88:                                               ; preds = %87, %45, %44
  %89 = load i64, ptr %5, align 8
  %90 = add nsw i64 %89, 1
  store i64 %90, ptr %5, align 8
  br label %12, !llvm.loop !26

91:                                               ; preds = %12
  %92 = load ptr, ptr %6, align 8
  call void @llvm.lifetime.end.p0(i64 8, ptr %8) #12
  call void @llvm.lifetime.end.p0(i64 8, ptr %7) #12
  call void @llvm.lifetime.end.p0(i64 8, ptr %6) #12
  call void @llvm.lifetime.end.p0(i64 8, ptr %5) #12
  call void @llvm.lifetime.end.p0(i64 8, ptr %4) #12
  call void @llvm.lifetime.end.p0(i64 4, ptr %3) #12
  ret ptr %92
}