; Function Attrs: nounwind uwtable
define dso_local ptr @bit_fmt_full(ptr noundef readonly captures(none) %0) #0 {
  %2 = alloca ptr, align 8
  %3 = alloca ptr, align 8
  call void @llvm.lifetime.start.p0(i64 8, ptr nonnull %2) #17
  store ptr null, ptr %2, align 8
  call void @llvm.lifetime.start.p0(i64 8, ptr nonnull %3) #17
  store ptr null, ptr %3, align 8
  %4 = getelementptr inbounds nuw i8, ptr %0, i64 8
  %5 = load i64, ptr %4, align 8
  %6 = icmp sgt i64 %5, 0
  br i1 %6, label %.lr.ph.lr.ph, label %.outer._crit_edge

.lr.ph.lr.ph:                                     ; preds = %1
  %invariant.gep = getelementptr i8, ptr %0, i64 16
  br label %.lr.ph

.lr.ph:                                           ; preds = %.lr.ph.lr.ph, %.outer
  %7 = phi i64 [ %5, %.lr.ph.lr.ph ], [ %36, %.outer ]
  %.0.ph32 = phi ptr [ @.str.4, %.lr.ph.lr.ph ], [ %.1, %.outer ]
  %.023.ph31 = phi i64 [ 0, %.lr.ph.lr.ph ], [ %35, %.outer ]
  br label %8

8:                                                ; preds = %.lr.ph, %15
  %.02330 = phi i64 [ %.023.ph31, %.lr.ph ], [ %16, %15 ]
  %9 = ashr i64 %.02330, 6
  %10 = add nsw i64 %9, 2
  %sext = shl i64 %10, 32
  %11 = ashr exact i64 %sext, 29
  %12 = getelementptr inbounds i8, ptr %0, i64 %11
  %13 = load i64, ptr %12, align 8
  %14 = icmp eq i64 %13, 0
  br i1 %14, label %15, label %18

15:                                               ; preds = %8
  %16 = add i64 %.02330, 64
  %17 = icmp slt i64 %16, %7
  br i1 %17, label %8, label %.outer._crit_edge, !llvm.loop !27

18:                                               ; preds = %8
  %19 = getelementptr inbounds i64, ptr %0, i64 %10
  %20 = load i64, ptr %19, align 8
  %21 = and i64 %.02330, 63
  %22 = shl nuw i64 1, %21
  %23 = and i64 %20, %22
  %.not = icmp eq i64 %23, 0
  br i1 %.not, label %.outer, label %.preheader

.preheader:                                       ; preds = %18, %26
  %.2 = phi i64 [ %24, %26 ], [ %.02330, %18 ]
  %24 = add nsw i64 %.2, 1
  %25 = icmp slt i64 %24, %7
  br i1 %25, label %26, label %.critedge

26:                                               ; preds = %.preheader
  %27 = ashr i64 %24, 6
  %gep = getelementptr i64, ptr %invariant.gep, i64 %27
  %28 = load i64, ptr %gep, align 8
  %29 = and i64 %24, 63
  %30 = shl nuw i64 1, %29
  %31 = and i64 %28, %30
  %.not26 = icmp eq i64 %31, 0
  br i1 %.not26, label %.critedge, label %.preheader, !llvm.loop !28

.critedge:                                        ; preds = %.preheader, %26
  %32 = icmp eq i64 %.2, %.02330
  br i1 %32, label %33, label %34

33:                                               ; preds = %.critedge
  call void (ptr, ptr, ptr, ...) @_xstrfmtcatat(ptr noundef nonnull %2, ptr noundef nonnull %3, ptr noundef nonnull @.str.5, ptr noundef %.0.ph32, i64 noundef %.02330) #17
  br label %.outer

34:                                               ; preds = %.critedge
  call void (ptr, ptr, ptr, ...) @_xstrfmtcatat(ptr noundef nonnull %2, ptr noundef nonnull %3, ptr noundef nonnull @.str.6, ptr noundef %.0.ph32, i64 noundef %.02330, i64 noundef %.2) #17
  br label %.outer

.outer:                                           ; preds = %33, %34, %18
  %.124 = phi i64 [ %.02330, %18 ], [ %.2, %34 ], [ %.02330, %33 ]
  %.1 = phi ptr [ %.0.ph32, %18 ], [ @.str.7, %34 ], [ @.str.7, %33 ]
  %35 = add nsw i64 %.124, 1
  %36 = load i64, ptr %4, align 8
  %37 = icmp slt i64 %35, %36
  br i1 %37, label %.lr.ph, label %.outer._crit_edge, !llvm.loop !27

.outer._crit_edge:                                ; preds = %.outer, %15, %1
  %38 = load ptr, ptr %2, align 8
  call void @llvm.lifetime.end.p0(i64 8, ptr nonnull %3) #17
  call void @llvm.lifetime.end.p0(i64 8, ptr nonnull %2) #17
  ret ptr %38
}